target datalayout = "e-m:e-p270:32:32-p271:32:32-p272:64:64-i64:64-i128:128-f80:128-n8:16:32:64-S128"
target triple = "x86_64-pc-linux-gnu"

%struct.Qureg = type { i32, i32, i32, i64, i64, i32, i32, %struct.ComplexArray, %struct.ComplexArray, %struct.ComplexArray, ptr, ptr, ptr, ptr, ptr, ptr }
%struct.ComplexArray = type { ptr, ptr }
%struct.ComplexMatrix2 = type { [2 x [2 x double]], [2 x [2 x double]] }

@__func__.controlledUnitary = private unnamed_addr constant [18 x i8] c"controlledUnitary\00", align 1

; Function Attrs: nounwind uwtable
define void @controlledUnitary(ptr noundef byval(%struct.Qureg) align 8 %0, i32 noundef %1, i32 noundef %2, ptr noundef byval(%struct.ComplexMatrix2) align 8 %3) #0 {
  %5 = alloca i32, align 4
  %6 = alloca i32, align 4
  %7 = alloca i32, align 4
  %8 = alloca %struct.ComplexMatrix2, align 8
  store i32 %1, ptr %5, align 4, !tbaa !4
  store i32 %2, ptr %6, align 4, !tbaa !4
  %9 = load i32, ptr %5, align 4, !tbaa !4
  %10 = load i32, ptr %6, align 4, !tbaa !4
  call void @validateControlTarget(ptr noundef byval(%struct.Qureg) align 8 %0, i32 noundef %9, i32 noundef %10, ptr noundef @__func__.controlledUnitary)
  call void @validateOneQubitUnitaryMatrix(ptr noundef byval(%struct.ComplexMatrix2) align 8 %3, ptr noundef @__func__.controlledUnitary)
  %11 = load i32, ptr %5, align 4, !tbaa !4
  %12 = load i32, ptr %6, align 4, !tbaa !4
  call void @statevec_controlledUnitary(ptr noundef byval(%struct.Qureg) align 8 %0, i32 noundef %11, i32 noundef %12, ptr noundef byval(%struct.ComplexMatrix2) align 8 %3)
  %13 = getelementptr inbounds nuw %struct.Qureg, ptr %0, i32 0, i32 0
  %14 = load i32, ptr %13, align 8, !tbaa !13
  %15 = icmp ne i32 %14, 0
  br i1 %15, label %16, label %25

16:                                               ; preds = %4
  call void @llvm.lifetime.start.p0(i64 4, ptr %7) #7
  %17 = getelementptr inbounds nuw %struct.Qureg, ptr %0, i32 0, i32 1
  %18 = load i32, ptr %17, align 4, !tbaa !18
  store i32 %18, ptr %7, align 4, !tbaa !4
  %19 = load i32, ptr %5, align 4, !tbaa !4
  %20 = load i32, ptr %7, align 4, !tbaa !4
  %21 = add nsw i32 %19, %20
  %22 = load i32, ptr %6, align 4, !tbaa !4
  %23 = load i32, ptr %7, align 4, !tbaa !4
  %24 = add nsw i32 %22, %23
  call void @getConjugateMatrix2(ptr dead_on_unwind writable sret(%struct.ComplexMatrix2) align 8 %8, ptr noundef byval(%struct.ComplexMatrix2) align 8 %3)
  call void @statevec_controlledUnitary(ptr noundef byval(%struct.Qureg) align 8 %0, i32 noundef %21, i32 noundef %24, ptr noundef byval(%struct.ComplexMatrix2) align 8 %8)
  call void @llvm.lifetime.end.p0(i64 4, ptr %7) #7
  br label %25

25:                                               ; preds = %16, %4
  %26 = load i32, ptr %5, align 4, !tbaa !4
  %27 = load i32, ptr %6, align 4, !tbaa !4
  call void @qasm_recordControlledUnitary(ptr noundef byval(%struct.Qureg) align 8 %0, ptr noundef byval(%struct.ComplexMatrix2) align 8 %3, i32 noundef %26, i32 noundef %27)
  ret void
}