; Function Attrs: nounwind uwtable
define void @controlledUnitary(ptr noundef readonly byval(%struct.Qureg) align 8 captures(none) %0, i32 noundef %1, i32 noundef %2, ptr noundef readonly byval(%struct.ComplexMatrix2) align 8 captures(none) %3) local_unnamed_addr #0 {
  %5 = alloca %struct.ComplexMatrix2, align 8
  tail call void @validateControlTarget(ptr noundef nonnull byval(%struct.Qureg) align 8 %0, i32 noundef %1, i32 noundef %2, ptr noundef nonnull @__func__.controlledUnitary) #17
  tail call void @validateOneQubitUnitaryMatrix(ptr noundef nonnull byval(%struct.ComplexMatrix2) align 8 %3, ptr noundef nonnull @__func__.controlledUnitary) #17
  tail call void @statevec_controlledUnitary(ptr noundef nonnull byval(%struct.Qureg) align 8 %0, i32 noundef %1, i32 noundef %2, ptr noundef nonnull byval(%struct.ComplexMatrix2) align 8 %3) #17
  %6 = load i32, ptr %0, align 8, !tbaa !12
  %.not = icmp eq i32 %6, 0
  br i1 %.not, label %12, label %7

7:                                                ; preds = %4
  %8 = getelementptr inbounds nuw i8, ptr %0, i64 4
  %9 = load i32, ptr %8, align 4, !tbaa !17
  %10 = add nsw i32 %9, %1
  %11 = add nsw i32 %9, %2
  call void @getConjugateMatrix2(ptr dead_on_unwind nonnull writable sret(%struct.ComplexMatrix2) align 8 %5, ptr noundef nonnull byval(%struct.ComplexMatrix2) align 8 %3) #17
  call void @statevec_controlledUnitary(ptr noundef nonnull byval(%struct.Qureg) align 8 %0, i32 noundef %10, i32 noundef %11, ptr noundef nonnull byval(%struct.ComplexMatrix2) align 8 %5) #17
  br label %12

12:                                               ; preds = %7, %4
  call void @qasm_recordControlledUnitary(ptr noundef nonnull byval(%struct.Qureg) align 8 %0, ptr noundef nonnull byval(%struct.ComplexMatrix2) align 8 %3, i32 noundef %1, i32 noundef %2) #17
  ret void
}